; Function Attrs: mustprogress uwtable
define void @_ZN20colvar_grid_gradientC2ERSt6vectorIP6colvarSaIS2_EESt10shared_ptrI17colvar_grid_countE(ptr noundef nonnull align 8 dereferenceable(728) %0, ptr noundef nonnull align 8 dereferenceable(24) %1, ptr noundef readonly captures(none) %2) unnamed_addr #3 align 2 personality ptr @__gxx_personality_v0 {
  %4 = alloca double, align 8
  call void @llvm.lifetime.start.p0(i64 8, ptr nonnull %4) #26
  store double 0.000000e+00, ptr %4, align 8, !tbaa !90
  %5 = getelementptr inbounds nuw i8, ptr %1, i64 8
  %6 = load ptr, ptr %5, align 8, !tbaa !128
  %7 = load ptr, ptr %1, align 8, !tbaa !101
  %8 = ptrtoint ptr %6 to i64
  %9 = ptrtoint ptr %7 to i64
  %10 = sub i64 %8, %9
  %11 = ashr exact i64 %10, 3
  call void @_ZN11colvar_gridIdEC2ERKSt6vectorIP6colvarSaIS3_EERKdmb(ptr noundef nonnull align 8 dereferenceable(698) %0, ptr noundef nonnull align 8 dereferenceable(24) %1, ptr noundef nonnull align 8 dereferenceable(8) %4, i64 noundef %11, i1 noundef zeroext false)
  call void @llvm.lifetime.end.p0(i64 8, ptr nonnull %4) #26
  store ptr getelementptr inbounds nuw inrange(-16, 88) (i8, ptr @_ZTV20colvar_grid_gradient, i64 16), ptr %0, align 8, !tbaa !93
  %12 = getelementptr inbounds nuw i8, ptr %0, i64 704
  %13 = load ptr, ptr %2, align 8, !tbaa !518
  store ptr %13, ptr %12, align 8, !tbaa !518
  %14 = getelementptr inbounds nuw i8, ptr %0, i64 712
  %15 = getelementptr inbounds nuw i8, ptr %2, i64 8
  %16 = load ptr, ptr %15, align 8, !tbaa !512
  store ptr %16, ptr %14, align 8, !tbaa !512
  %.not.i.i.i = icmp eq ptr %16, null
  br i1 %.not.i.i.i, label %_ZNSt10shared_ptrI17colvar_grid_countEC2ERKS1_.exit, label %17

17:                                               ; preds = %3
  %18 = getelementptr inbounds nuw i8, ptr %16, i64 8
  %19 = load i8, ptr @__libc_single_threaded, align 1, !tbaa !14
  %.not.i.i.i.i = icmp eq i8 %19, 0
  br i1 %.not.i.i.i.i, label %23, label %20

20:                                               ; preds = %17
  %21 = load i32, ptr %18, align 4, !tbaa !83
  %22 = add nsw i32 %21, 1
  store i32 %22, ptr %18, align 4, !tbaa !83
  br label %_ZNSt10shared_ptrI17colvar_grid_countEC2ERKS1_.exit

23:                                               ; preds = %17
  %24 = atomicrmw volatile add ptr %18, i32 1 acq_rel, align 4
  %.pre = load ptr, ptr %2, align 8, !tbaa !518
  br label %_ZNSt10shared_ptrI17colvar_grid_countEC2ERKS1_.exit

_ZNSt10shared_ptrI17colvar_grid_countEC2ERKS1_.exit: ; preds = %3, %20, %23
  %25 = phi ptr [ %13, %3 ], [ %13, %20 ], [ %.pre, %23 ]
  %26 = getelementptr inbounds nuw i8, ptr %0, i64 720
  store i32 0, ptr %26, align 8, !tbaa !523
  %27 = getelementptr inbounds nuw i8, ptr %0, i64 724
  store i32 0, ptr %27, align 4, !tbaa !520
  %28 = getelementptr inbounds nuw i8, ptr %25, i64 696
  store i8 1, ptr %28, align 8, !tbaa !99
  ret void
}